; Function Attrs: mustprogress uwtable
define void @_ZN3gmx10EnergyData32setParrinelloRahmanBoxVelocitiesEOSt8functionIFPA3_KfvEE(ptr noundef nonnull align 8 captures(none) dereferenceable(552) %0, ptr noundef nonnull align 8 dereferenceable(32) %1) local_unnamed_addr #0 align 2 personality ptr @__gxx_personality_v0 {
  %.sroa.0.i.i.i = alloca { i64, i64 }, align 8
  %3 = alloca %"class.std::function.57", align 8
  %4 = getelementptr inbounds nuw i8, ptr %0, i64 416
  %5 = getelementptr inbounds nuw i8, ptr %0, i64 432
  %6 = load ptr, ptr %5, align 8, !tbaa !37
  %.not.i.i.not = icmp eq ptr %6, null
  br i1 %.not.i.i.not, label %8, label %7

7:                                                ; preds = %2
  tail call void @_ZN3gmx8internal13assertHandlerEPKcS2_S2_S2_i(ptr noundef nonnull @.str.23, ptr noundef nonnull @.str.24, ptr noundef nonnull @"__PRETTY_FUNCTION__._ZZN3gmx10EnergyData32setParrinelloRahmanBoxVelocitiesEOSt8functionIFPA3_KfvEEENK3$_0clEv", ptr noundef nonnull @.str.25, i32 noundef 513) #30
  unreachable

8:                                                ; preds = %2
  call void @llvm.lifetime.start.p0(i64 32, ptr nonnull %3) #33
  %9 = getelementptr inbounds nuw i8, ptr %3, i64 16
  %10 = getelementptr inbounds nuw i8, ptr %3, i64 24
  %11 = getelementptr inbounds nuw i8, ptr %1, i64 16
  call void @llvm.memset.p0.i64(ptr noundef nonnull align 8 dereferenceable(32) %3, i8 0, i64 32, i1 false)
  %12 = load ptr, ptr %11, align 8, !tbaa !37
  %.not.i.i.not.i.i = icmp eq ptr %12, null
  br i1 %.not.i.i.not.i.i, label %_ZNSt8functionIFPA3_KfvEEC2ERKS4_.exit.i, label %13

13:                                               ; preds = %8
  %14 = invoke noundef zeroext i1 %12(ptr noundef nonnull align 8 dereferenceable(32) %3, ptr noundef nonnull align 8 dereferenceable(32) %1, i32 noundef 2)
          to label %15 unwind label %19

15:                                               ; preds = %13
  %16 = getelementptr inbounds nuw i8, ptr %1, i64 24
  %17 = load ptr, ptr %16, align 8, !tbaa !229
  %18 = load ptr, ptr %11, align 8, !tbaa !37
  %.pre = load ptr, ptr %5, align 8, !tbaa !33
  br label %_ZNSt8functionIFPA3_KfvEEC2ERKS4_.exit.i

19:                                               ; preds = %13
  %20 = landingpad { ptr, i32 }
          cleanup
  %21 = load ptr, ptr %9, align 8, !tbaa !37
  %.not.i.i.i = icmp eq ptr %21, null
  br i1 %.not.i.i.i, label %_ZNSt14_Function_baseD2Ev.exit.i.i, label %22

22:                                               ; preds = %19
  %23 = invoke noundef zeroext i1 %21(ptr noundef nonnull align 8 dereferenceable(32) %3, ptr noundef nonnull align 8 dereferenceable(32) %3, i32 noundef 3)
          to label %_ZNSt14_Function_baseD2Ev.exit.i.i unwind label %24

24:                                               ; preds = %22
  %25 = landingpad { ptr, i32 }
          catch ptr null
  %26 = extractvalue { ptr, i32 } %25, 0
  call void @__clang_call_terminate(ptr %26) #31
  unreachable

_ZNSt14_Function_baseD2Ev.exit.i.i:               ; preds = %22, %19
  resume { ptr, i32 } %20

_ZNSt8functionIFPA3_KfvEEC2ERKS4_.exit.i:         ; preds = %15, %8
  %27 = phi ptr [ null, %8 ], [ %.pre, %15 ]
  %28 = phi ptr [ null, %8 ], [ %17, %15 ]
  %29 = phi ptr [ null, %8 ], [ %18, %15 ]
  call void @llvm.lifetime.start.p0(i64 16, ptr nonnull %.sroa.0.i.i.i)
  call void @llvm.memcpy.p0.p0.i64(ptr noundef nonnull align 8 dereferenceable(16) %.sroa.0.i.i.i, ptr noundef nonnull align 8 dereferenceable(32) %3, i64 16, i1 false), !tbaa.struct !507
  call void @llvm.memcpy.p0.p0.i64(ptr noundef nonnull align 8 dereferenceable(32) %3, ptr noundef nonnull align 8 dereferenceable(32) %4, i64 16, i1 false), !tbaa.struct !507
  call void @llvm.memcpy.p0.p0.i64(ptr noundef nonnull align 8 dereferenceable(32) %4, ptr noundef nonnull align 8 dereferenceable(16) %.sroa.0.i.i.i, i64 16, i1 false), !tbaa.struct !507
  call void @llvm.lifetime.end.p0(i64 16, ptr nonnull %.sroa.0.i.i.i)
  store ptr %27, ptr %9, align 8, !tbaa !33
  store ptr %29, ptr %5, align 8, !tbaa !33
  %30 = getelementptr inbounds nuw i8, ptr %0, i64 440
  %31 = load ptr, ptr %30, align 8, !tbaa !33
  store ptr %31, ptr %10, align 8, !tbaa !33
  store ptr %28, ptr %30, align 8, !tbaa !33
  %.not.i.i2 = icmp eq ptr %27, null
  br i1 %.not.i.i2, label %_ZNSt8functionIFPA3_KfvEEaSERKS4_.exit, label %32

32:                                               ; preds = %_ZNSt8functionIFPA3_KfvEEC2ERKS4_.exit.i
  %33 = invoke noundef zeroext i1 %27(ptr noundef nonnull align 8 dereferenceable(32) %3, ptr noundef nonnull align 8 dereferenceable(32) %3, i32 noundef 3)
          to label %_ZNSt8functionIFPA3_KfvEEaSERKS4_.exit unwind label %34

34:                                               ; preds = %32
  %35 = landingpad { ptr, i32 }
          catch ptr null
  %36 = extractvalue { ptr, i32 } %35, 0
  call void @__clang_call_terminate(ptr %36) #31
  unreachable

_ZNSt8functionIFPA3_KfvEEaSERKS4_.exit:           ; preds = %_ZNSt8functionIFPA3_KfvEEC2ERKS4_.exit.i, %32
  call void @llvm.lifetime.end.p0(i64 32, ptr nonnull %3) #33
  ret void
}